target datalayout = "e-m:e-p270:32:32-p271:32:32-p272:64:64-i64:64-i128:128-f80:128-n8:16:32:64-S128"
target triple = "x86_64-pc-linux-gnu"

@getPhaseFuncSymbol.xyz = internal global [7 x i8] c"xyztrvu", align 1
@getPhaseFuncSymbol.abc = internal global [24 x i8] c"abcdefghjklmnpqrstuvwxyz", align 16
@__func__.getPhaseFuncSymbol = private unnamed_addr constant [19 x i8] c"getPhaseFuncSymbol\00", align 1

; Function Attrs: nounwind uwtable
define signext i8 @getPhaseFuncSymbol(i32 noundef %0, i32 noundef %1) #0 {
  %3 = alloca i8, align 1
  %4 = alloca i32, align 4
  %5 = alloca i32, align 4
  store i32 %0, ptr %4, align 4, !tbaa !25
  store i32 %1, ptr %5, align 4, !tbaa !25
  %6 = load i32, ptr %4, align 4, !tbaa !25
  %7 = icmp sle i32 %6, 7
  br i1 %7, label %8, label %13

8:                                                ; preds = %2
  %9 = load i32, ptr %5, align 4, !tbaa !25
  %10 = sext i32 %9 to i64
  %11 = getelementptr inbounds [7 x i8], ptr @getPhaseFuncSymbol.xyz, i64 0, i64 %10
  %12 = load i8, ptr %11, align 1, !tbaa !34
  store i8 %12, ptr %3, align 1
  br label %22

13:                                               ; preds = %2
  %14 = load i32, ptr %4, align 4, !tbaa !25
  %15 = icmp sle i32 %14, 24
  br i1 %15, label %16, label %21

16:                                               ; preds = %13
  %17 = load i32, ptr %5, align 4, !tbaa !25
  %18 = sext i32 %17 to i64
  %19 = getelementptr inbounds [24 x i8], ptr @getPhaseFuncSymbol.abc, i64 0, i64 %18
  %20 = load i8, ptr %19, align 1, !tbaa !34
  store i8 %20, ptr %3, align 1
  br label %22

21:                                               ; preds = %13
  call void @raiseQASMBufferOverflow(ptr noundef @__func__.getPhaseFuncSymbol)
  store i8 120, ptr %3, align 1
  br label %22

22:                                               ; preds = %21, %16, %8
  %23 = load i8, ptr %3, align 1
  ret i8 %23
}