; Function Attrs: nounwind uwtable
define signext i8 @getPhaseFuncSymbol(i32 noundef %0, i32 noundef %1) local_unnamed_addr #0 {
  %3 = icmp slt i32 %0, 8
  br i1 %3, label %4, label %8

4:                                                ; preds = %2
  %5 = sext i32 %1 to i64
  %6 = getelementptr inbounds [7 x i8], ptr @getPhaseFuncSymbol.xyz, i64 0, i64 %5
  %7 = load i8, ptr %6, align 1, !tbaa !26
  br label %15

8:                                                ; preds = %2
  %9 = icmp samesign ult i32 %0, 25
  br i1 %9, label %10, label %14

10:                                               ; preds = %8
  %11 = sext i32 %1 to i64
  %12 = getelementptr inbounds [24 x i8], ptr @getPhaseFuncSymbol.abc, i64 0, i64 %11
  %13 = load i8, ptr %12, align 1, !tbaa !26
  br label %15

14:                                               ; preds = %8
  tail call void @raiseQASMBufferOverflow(ptr noundef nonnull @__func__.getPhaseFuncSymbol) #16
  br label %15

15:                                               ; preds = %14, %10, %4
  %.0 = phi i8 [ %7, %4 ], [ %13, %10 ], [ 120, %14 ]
  ret i8 %.0
}